target datalayout = "e-m:e-p270:32:32-p271:32:32-p272:64:64-i64:64-i128:128-f80:128-n8:16:32:64-S128"
target triple = "x86_64-unknown-linux-gnu"

%"class.boost::detail::shared_count" = type { ptr }
%"class.boost::shared_ptr.10" = type { ptr, %"class.boost::detail::shared_count" }
%"class.QuantLib::VegaBumpCollection" = type <{ %"class.std::vector.29", %"class.boost::shared_ptr.10", i8, i8, i8, [5 x i8] }>
%"class.std::vector.29" = type { %"struct.std::_Vector_base.30" }
%"struct.std::_Vector_base.30" = type { %"struct.std::_Vector_base<QuantLib::VegaBumpCluster, std::allocator<QuantLib::VegaBumpCluster>>::_Vector_impl" }
%"struct.std::_Vector_base<QuantLib::VegaBumpCluster, std::allocator<QuantLib::VegaBumpCluster>>::_Vector_impl" = type { %"struct.std::_Vector_base<QuantLib::VegaBumpCluster, std::allocator<QuantLib::VegaBumpCluster>>::_Vector_impl_data" }
%"struct.std::_Vector_base<QuantLib::VegaBumpCluster, std::allocator<QuantLib::VegaBumpCluster>>::_Vector_impl_data" = type { ptr, ptr, ptr }

; Function Attrs: mustprogress uwtable
define noundef zeroext i1 @_ZNK8QuantLib18VegaBumpCollection10isSensibleEv(ptr noundef nonnull align 8 dereferenceable(43) %this) #2 align 2 {
entry:
  %retval = alloca i1, align 1
  %this.addr = alloca ptr, align 8
  store ptr %this, ptr %this.addr, align 8, !tbaa !3
  %this1 = load ptr, ptr %this.addr, align 8
  %checked_ = getelementptr inbounds nuw %"class.QuantLib::VegaBumpCollection", ptr %this1, i32 0, i32 2
  %0 = load i8, ptr %checked_, align 8, !tbaa !31, !range !25, !noundef !26
  %loadedv = trunc i8 %0 to i1
  br i1 %loadedv, label %if.then, label %if.end

if.then:                                          ; preds = %entry
  store i1 true, ptr %retval, align 1
  br label %return

if.end:                                           ; preds = %entry
  %call = call noundef zeroext i1 @_ZNK8QuantLib18VegaBumpCollection16isNonOverlappingEv(ptr noundef nonnull align 8 dereferenceable(43) %this1)
  br i1 %call, label %land.rhs, label %land.end

land.rhs:                                         ; preds = %if.end
  %call2 = call noundef zeroext i1 @_ZNK8QuantLib18VegaBumpCollection6isFullEv(ptr noundef nonnull align 8 dereferenceable(43) %this1)
  br label %land.end

land.end:                                         ; preds = %land.rhs, %if.end
  %1 = phi i1 [ false, %if.end ], [ %call2, %land.rhs ]
  store i1 %1, ptr %retval, align 1
  br label %return

return:                                           ; preds = %land.end, %if.then
  %2 = load i1, ptr %retval, align 1
  ret i1 %2
}