; Function Attrs: mustprogress uwtable
define noundef zeroext i1 @_ZNK8QuantLib18VegaBumpCollection10isSensibleEv(ptr nocapture noundef nonnull readonly align 8 dereferenceable(43) %this) local_unnamed_addr #3 align 2 {
entry:
  %checked_ = getelementptr inbounds nuw i8, ptr %this, i64 40
  %0 = load i8, ptr %checked_, align 8, !tbaa !45, !range !57, !noundef !58
  %loadedv = trunc nuw i8 %0 to i1
  br i1 %loadedv, label %return, label %if.end

if.end:                                           ; preds = %entry
  %call = tail call noundef zeroext i1 @_ZNK8QuantLib18VegaBumpCollection16isNonOverlappingEv(ptr noundef nonnull align 8 dereferenceable(43) %this)
  br i1 %call, label %land.rhs, label %return

land.rhs:                                         ; preds = %if.end
  %call2 = tail call noundef zeroext i1 @_ZNK8QuantLib18VegaBumpCollection6isFullEv(ptr noundef nonnull align 8 dereferenceable(43) %this)
  br label %return

return:                                           ; preds = %if.end, %land.rhs, %entry
  %retval.0 = phi i1 [ true, %entry ], [ false, %if.end ], [ %call2, %land.rhs ]
  ret i1 %retval.0
}